; Function Attrs: mustprogress uwtable
define hidden void @_ZN4lean2ir13get_sorry_depERKNS_16elab_environmentERKNS_4nameE(ptr dead_on_unwind noalias writable writeonly sret(%"class.lean::optional") align 8 captures(none) initializes((0, 1)) %0, ptr noundef nonnull readonly align 8 captures(none) dereferenceable(8) %1, ptr noundef nonnull readonly align 8 captures(none) dereferenceable(8) %2) local_unnamed_addr #0 personality ptr @__gxx_personality_v0 {
  %4 = alloca %"class.lean::option_ref.1", align 8
  call void @llvm.lifetime.start.p0(i64 8, ptr nonnull %4) #24
  %5 = load ptr, ptr %1, align 8, !tbaa !6
  %6 = ptrtoint ptr %5 to i64
  %7 = and i64 %6, 1
  %.not.i.i = icmp eq i64 %7, 0
  br i1 %.not.i.i, label %8, label %_ZNK4lean10object_ref10to_obj_argEv.exit

8:                                                ; preds = %3
  %.val.i.i.i = load i32, ptr %5, align 4, !tbaa !12
  %9 = icmp sgt i32 %.val.i.i.i, 0
  br i1 %9, label %10, label %12, !prof !15

10:                                               ; preds = %8
  %11 = add nuw nsw i32 %.val.i.i.i, 1
  store i32 %11, ptr %5, align 4, !tbaa !12
  br label %_ZNK4lean10object_ref10to_obj_argEv.exit

12:                                               ; preds = %8
  %.not.i.i.i = icmp eq i32 %.val.i.i.i, 0
  br i1 %.not.i.i.i, label %_ZNK4lean10object_ref10to_obj_argEv.exit, label %13

13:                                               ; preds = %12
  tail call void @lean_inc_ref_cold(ptr noundef nonnull %5)
  %.pre.i = load ptr, ptr %1, align 8, !tbaa !6
  br label %_ZNK4lean10object_ref10to_obj_argEv.exit

_ZNK4lean10object_ref10to_obj_argEv.exit:         ; preds = %3, %10, %12, %13
  %14 = phi ptr [ %5, %3 ], [ %5, %10 ], [ %5, %12 ], [ %.pre.i, %13 ]
  %15 = load ptr, ptr %2, align 8, !tbaa !6
  %16 = ptrtoint ptr %15 to i64
  %17 = and i64 %16, 1
  %.not.i.i3 = icmp eq i64 %17, 0
  br i1 %.not.i.i3, label %18, label %_ZNK4lean10object_ref10to_obj_argEv.exit7

18:                                               ; preds = %_ZNK4lean10object_ref10to_obj_argEv.exit
  %.val.i.i.i4 = load i32, ptr %15, align 4, !tbaa !12
  %19 = icmp sgt i32 %.val.i.i.i4, 0
  br i1 %19, label %20, label %22, !prof !15

20:                                               ; preds = %18
  %21 = add nuw nsw i32 %.val.i.i.i4, 1
  store i32 %21, ptr %15, align 4, !tbaa !12
  br label %_ZNK4lean10object_ref10to_obj_argEv.exit7

22:                                               ; preds = %18
  %.not.i.i.i5 = icmp eq i32 %.val.i.i.i4, 0
  br i1 %.not.i.i.i5, label %_ZNK4lean10object_ref10to_obj_argEv.exit7, label %23

23:                                               ; preds = %22
  tail call void @lean_inc_ref_cold(ptr noundef nonnull %15)
  %.pre.i6 = load ptr, ptr %2, align 8, !tbaa !6
  br label %_ZNK4lean10object_ref10to_obj_argEv.exit7

_ZNK4lean10object_ref10to_obj_argEv.exit7:        ; preds = %_ZNK4lean10object_ref10to_obj_argEv.exit, %20, %22, %23
  %24 = phi ptr [ %15, %_ZNK4lean10object_ref10to_obj_argEv.exit ], [ %15, %20 ], [ %15, %22 ], [ %.pre.i6, %23 ]
  %25 = tail call ptr @lean_decl_get_sorry_dep(ptr noundef %14, ptr noundef %24)
  store ptr %25, ptr %4, align 8, !tbaa !6
  tail call void @llvm.experimental.noalias.scope.decl(metadata !31)
  %26 = ptrtoint ptr %25 to i64
  %27 = and i64 %26, 1
  %.not.i.i8 = icmp eq i64 %27, 0
  br i1 %.not.i.i8, label %28, label %_ZNK4lean10option_refINS_4nameEE3getEv.exit

28:                                               ; preds = %_ZNK4lean10object_ref10to_obj_argEv.exit7
  %29 = getelementptr inbounds nuw i8, ptr %25, i64 8
  tail call void @llvm.experimental.noalias.scope.decl(metadata !34)
  store i8 1, ptr %0, align 8, !tbaa !16, !alias.scope !37
  %30 = getelementptr inbounds nuw i8, ptr %0, i64 8
  %31 = load ptr, ptr %29, align 8, !tbaa !6, !noalias !37
  store ptr %31, ptr %30, align 8, !tbaa !6, !alias.scope !37
  %32 = ptrtoint ptr %31 to i64
  %33 = and i64 %32, 1
  %.not.i.i.i.i.i.i = icmp eq i64 %33, 0
  br i1 %.not.i.i.i.i.i.i, label %34, label %40

34:                                               ; preds = %28
  %.val.i.i.i.i.i.i.i = load i32, ptr %31, align 4, !tbaa !12, !noalias !37
  %35 = icmp sgt i32 %.val.i.i.i.i.i.i.i, 0
  br i1 %35, label %36, label %38, !prof !15

36:                                               ; preds = %34
  %37 = add nuw nsw i32 %.val.i.i.i.i.i.i.i, 1
  store i32 %37, ptr %31, align 4, !tbaa !12, !noalias !37
  br label %40

38:                                               ; preds = %34
  %.not.i.i.i.i.i.i.i = icmp eq i32 %.val.i.i.i.i.i.i.i, 0
  br i1 %.not.i.i.i.i.i.i.i, label %40, label %39

39:                                               ; preds = %38
  invoke void @lean_inc_ref_cold(ptr noundef nonnull %31)
          to label %40 unwind label %50

_ZNK4lean10option_refINS_4nameEE3getEv.exit:      ; preds = %_ZNK4lean10object_ref10to_obj_argEv.exit7
  store i8 0, ptr %0, align 8, !tbaa !16, !alias.scope !31
  br label %_ZN4lean10object_refD2Ev.exit

40:                                               ; preds = %38, %36, %28, %39
  %41 = load i32, ptr %25, align 4, !tbaa !12
  %42 = icmp sgt i32 %41, 1
  br i1 %42, label %43, label %45, !prof !15

43:                                               ; preds = %40
  %44 = add nsw i32 %41, -1
  store i32 %44, ptr %25, align 4, !tbaa !12
  br label %_ZN4lean10object_refD2Ev.exit

45:                                               ; preds = %40
  %.not.i.i.i10 = icmp eq i32 %41, 0
  br i1 %.not.i.i.i10, label %_ZN4lean10object_refD2Ev.exit, label %46

46:                                               ; preds = %45
  invoke void @lean_dec_ref_cold(ptr noundef nonnull %25)
          to label %_ZN4lean10object_refD2Ev.exit unwind label %47

47:                                               ; preds = %46
  %48 = landingpad { ptr, i32 }
          catch ptr null
  %49 = extractvalue { ptr, i32 } %48, 0
  tail call void @__clang_call_terminate(ptr %49) #26
  unreachable

_ZN4lean10object_refD2Ev.exit:                    ; preds = %_ZNK4lean10option_refINS_4nameEE3getEv.exit, %43, %45, %46
  call void @llvm.lifetime.end.p0(i64 8, ptr nonnull %4) #24
  ret void

50:                                               ; preds = %39
  %51 = landingpad { ptr, i32 }
          cleanup
  call void @_ZN4lean10object_refD2Ev(ptr noundef nonnull align 8 dereferenceable(8) %4) #24
  call void @llvm.lifetime.end.p0(i64 8, ptr nonnull %4) #24
  resume { ptr, i32 } %51
}